; Function Attrs: mustprogress sspstrong uwtable
define internal noundef i32 @_ZL26__itt_mark_global_init_3_0iPKc(i32 noundef %0, ptr noundef %1) #0 {
  %3 = load volatile i64, ptr getelementptr inbounds nuw (i8, ptr @__itt__ittapi_global, i64 32), align 8, !tbaa !3
  %4 = icmp eq i64 %3, 0
  %5 = load ptr, ptr getelementptr inbounds nuw (i8, ptr @__itt__ittapi_global, i64 136), align 8
  %6 = icmp eq ptr %5, null
  %or.cond = select i1 %4, i1 %6, i1 false
  br i1 %or.cond, label %7, label %8

7:                                                ; preds = %2
  tail call void @ITT_DoOneTimeInitialization()
  br label %8

8:                                                ; preds = %7, %2
  %9 = load ptr, ptr @__itt_mark_global_ptr__3_0, align 8, !tbaa !21
  %10 = icmp ne ptr %9, null
  %11 = icmp ne ptr %9, @_ZL26__itt_mark_global_init_3_0iPKc
  %or.cond3 = and i1 %10, %11
  br i1 %or.cond3, label %12, label %14

12:                                               ; preds = %8
  %13 = tail call i32 %9(i32 noundef %0, ptr noundef %1)
  br label %14

14:                                               ; preds = %8, %12
  %.0 = phi i32 [ %13, %12 ], [ 0, %8 ]
  ret i32 %.0
}